target datalayout = "e-m:e-p270:32:32-p271:32:32-p272:64:64-i64:64-i128:128-f80:128-n8:16:32:64-S128"
target triple = "x86_64-pc-linux-gnu"

%"struct.std::pair" = type <{ i64, i16, [6 x i8] }>
%class.anon = type { i8 }
%class.anon.0 = type { i8 }
%class.anon.2 = type { ptr, ptr, ptr, ptr }
%"struct.std::pair.3" = type <{ i64, i32, [4 x i8] }>

; Function Attrs: mustprogress nounwind uwtable
define linkonce_odr hidden void @_ZNSt4pairImsEC2IRmRsTnNSt9enable_ifIXaaclsr5_PCCPE22_MoveConstructiblePairIT_T0_EEclsr5_PCCPE30_ImplicitlyMoveConvertiblePairIS5_S6_EEEbE4typeELb1EEEOS5_OS6_(ptr noundef nonnull align 8 dereferenceable(10) %0, ptr noundef nonnull align 8 dereferenceable(8) %1, ptr noundef nonnull align 2 dereferenceable(2) %2) unnamed_addr #0 comdat align 2 {
  %4 = alloca ptr, align 8
  %5 = alloca ptr, align 8
  %6 = alloca ptr, align 8
  store ptr %0, ptr %4, align 8
  store ptr %1, ptr %5, align 8
  store ptr %2, ptr %6, align 8
  %7 = load ptr, ptr %4, align 8
  %8 = getelementptr inbounds nuw %"struct.std::pair", ptr %7, i32 0, i32 0
  %9 = load ptr, ptr %5, align 8
  %10 = load i64, ptr %9, align 8
  store i64 %10, ptr %8, align 8
  %11 = getelementptr inbounds nuw %"struct.std::pair", ptr %7, i32 0, i32 1
  %12 = load ptr, ptr %6, align 8
  %13 = load i16, ptr %12, align 2
  store i16 %13, ptr %11, align 8
  ret void
}

; Function Attrs: mustprogress nounwind uwtable
define linkonce_odr hidden void @_ZNSt4pairImiEC2ImiTnNSt9enable_ifIXaaclsr5_PCCPE22_MoveConstructiblePairIT_T0_EEclsr5_PCCPE30_ImplicitlyMoveConvertiblePairIS3_S4_EEEbE4typeELb1EEEOS3_OS4_(ptr noundef nonnull align 8 dereferenceable(12) %0, ptr noundef nonnull align 8 dereferenceable(8) %1, ptr noundef nonnull align 4 dereferenceable(4) %2) unnamed_addr #0 comdat align 2 {
  %4 = alloca ptr, align 8
  %5 = alloca ptr, align 8
  %6 = alloca ptr, align 8
  store ptr %0, ptr %4, align 8
  store ptr %1, ptr %5, align 8
  store ptr %2, ptr %6, align 8
  %7 = load ptr, ptr %4, align 8
  %8 = getelementptr inbounds nuw %"struct.std::pair.3", ptr %7, i32 0, i32 0
  %9 = load ptr, ptr %5, align 8
  %10 = load i64, ptr %9, align 8
  store i64 %10, ptr %8, align 8
  %11 = getelementptr inbounds nuw %"struct.std::pair.3", ptr %7, i32 0, i32 1
  %12 = load ptr, ptr %6, align 8
  %13 = load i32, ptr %12, align 4
  store i32 %13, ptr %11, align 8
  ret void
}

; Function Attrs: mustprogress nounwind uwtable
define linkonce_odr { i64, i16 } @_ZSt9make_pairIRmRsESt4pairINSt25__strip_reference_wrapperINSt5decayIT_E4typeEE6__typeENS3_INS4_IT0_E4typeEE6__typeEEOS5_OSA_(ptr noundef nonnull align 8 dereferenceable(8) %0, ptr noundef nonnull align 2 dereferenceable(2) %1) #0 comdat {
  %3 = alloca %"struct.std::pair", align 8
  %4 = alloca ptr, align 8
  %5 = alloca ptr, align 8
  store ptr %0, ptr %4, align 8
  store ptr %1, ptr %5, align 8
  %6 = load ptr, ptr %4, align 8
  %7 = load ptr, ptr %5, align 8
  call void @_ZNSt4pairImsEC2IRmRsTnNSt9enable_ifIXaaclsr5_PCCPE22_MoveConstructiblePairIT_T0_EEclsr5_PCCPE30_ImplicitlyMoveConvertiblePairIS5_S6_EEEbE4typeELb1EEEOS5_OS6_(ptr noundef nonnull align 8 dereferenceable(10) %3, ptr noundef nonnull align 8 dereferenceable(8) %6, ptr noundef nonnull align 2 dereferenceable(2) %7)
  %8 = load { i64, i16 }, ptr %3, align 8
  ret { i64, i16 } %8
}

; Function Attrs: mustprogress nounwind uwtable
define linkonce_odr { i64, i32 } @_ZSt9make_pairImiESt4pairINSt25__strip_reference_wrapperINSt5decayIT_E4typeEE6__typeENS1_INS2_IT0_E4typeEE6__typeEEOS3_OS8_(ptr noundef nonnull align 8 dereferenceable(8) %0, ptr noundef nonnull align 4 dereferenceable(4) %1) #0 comdat {
  %3 = alloca %"struct.std::pair.3", align 8
  %4 = alloca ptr, align 8
  %5 = alloca ptr, align 8
  store ptr %0, ptr %4, align 8
  store ptr %1, ptr %5, align 8
  %6 = load ptr, ptr %4, align 8
  %7 = load ptr, ptr %5, align 8
  call void @_ZNSt4pairImiEC2ImiTnNSt9enable_ifIXaaclsr5_PCCPE22_MoveConstructiblePairIT_T0_EEclsr5_PCCPE30_ImplicitlyMoveConvertiblePairIS3_S4_EEEbE4typeELb1EEEOS3_OS4_(ptr noundef nonnull align 8 dereferenceable(12) %3, ptr noundef nonnull align 8 dereferenceable(8) %6, ptr noundef nonnull align 4 dereferenceable(4) %7)
  %8 = load { i64, i32 }, ptr %3, align 8
  ret { i64, i32 } %8
}

; Function Attrs: mustprogress nounwind uwtable
define linkonce_odr hidden noundef i32 @_ZN4llvm13ScaledNumbers8getWidthImEEiv() #0 comdat {
  ret i32 64
}

; Function Attrs: mustprogress nounwind uwtable
define linkonce_odr hidden noundef i32 @_ZN4llvm6detail19LeadingZerosCounterImLm8EE5countEm(i64 noundef %0) #0 comdat align 2 {
  %2 = alloca i32, align 4
  %3 = alloca i64, align 8
  store i64 %0, ptr %3, align 8
  %4 = load i64, ptr %3, align 8
  %5 = icmp eq i64 %4, 0
  br i1 %5, label %6, label %7

6:                                                ; preds = %1
  store i32 64, ptr %2, align 4
  br label %11

7:                                                ; preds = %1
  %8 = load i64, ptr %3, align 8
  %9 = call i64 @llvm.ctlz.i64(i64 %8, i1 true)
  %10 = trunc i64 %9 to i32
  store i32 %10, ptr %2, align 4
  br label %11

11:                                               ; preds = %7, %6
  %12 = load i32, ptr %2, align 4
  ret i32 %12
}

; Function Attrs: mustprogress nounwind uwtable
define linkonce_odr hidden void @_ZNSt4pairImiEC2IRmiTnNSt9enable_ifIXaaclsr5_PCCPE22_MoveConstructiblePairIT_T0_EEclsr5_PCCPE30_ImplicitlyMoveConvertiblePairIS4_S5_EEEbE4typeELb1EEEOS4_OS5_(ptr noundef nonnull align 8 dereferenceable(12) %0, ptr noundef nonnull align 8 dereferenceable(8) %1, ptr noundef nonnull align 4 dereferenceable(4) %2) unnamed_addr #0 comdat align 2 {
  %4 = alloca ptr, align 8
  %5 = alloca ptr, align 8
  %6 = alloca ptr, align 8
  store ptr %0, ptr %4, align 8
  store ptr %1, ptr %5, align 8
  store ptr %2, ptr %6, align 8
  %7 = load ptr, ptr %4, align 8
  %8 = getelementptr inbounds nuw %"struct.std::pair.3", ptr %7, i32 0, i32 0
  %9 = load ptr, ptr %5, align 8
  %10 = load i64, ptr %9, align 8
  store i64 %10, ptr %8, align 8
  %11 = getelementptr inbounds nuw %"struct.std::pair.3", ptr %7, i32 0, i32 1
  %12 = load ptr, ptr %6, align 8
  %13 = load i32, ptr %12, align 4
  store i32 %13, ptr %11, align 8
  ret void
}

; Function Attrs: mustprogress nounwind uwtable
define linkonce_odr hidden { i64, i16 } @_ZN4llvm13ScaledNumbers10getRoundedImEESt4pairIT_sES3_sb(i64 noundef %0, i16 noundef signext %1, i1 noundef zeroext %2) #0 comdat {
  %4 = alloca %"struct.std::pair", align 8
  %5 = alloca i64, align 8
  %6 = alloca i16, align 2
  %7 = alloca i8, align 1
  %8 = alloca %"struct.std::pair.3", align 8
  %9 = alloca i64, align 8
  %10 = alloca i32, align 4
  %11 = alloca { i64, i32 }, align 8
  %12 = alloca { i64, i16 }, align 8
  store i64 %0, ptr %5, align 8
  store i16 %1, ptr %6, align 2
  %13 = zext i1 %2 to i8
  store i8 %13, ptr %7, align 1
  %14 = load i8, ptr %7, align 1
  %15 = trunc i8 %14 to i1
  br i1 %15, label %16, label %30

16:                                               ; preds = %3
  %17 = load i64, ptr %5, align 8
  %18 = add i64 %17, 1
  store i64 %18, ptr %5, align 8
  %19 = icmp ne i64 %18, 0
  br i1 %19, label %29, label %20

20:                                               ; preds = %16
  %21 = call noundef i32 @_ZN4llvm13ScaledNumbers8getWidthImEEiv()
  %22 = sub nsw i32 %21, 1
  %23 = zext i32 %22 to i64
  %24 = shl i64 1, %23
  store i64 %24, ptr %9, align 8
  %25 = load i16, ptr %6, align 2
  %26 = sext i16 %25 to i32
  %27 = add nsw i32 %26, 1
  store i32 %27, ptr %10, align 4
  %28 = call { i64, i32 } @_ZSt9make_pairImiESt4pairINSt25__strip_reference_wrapperINSt5decayIT_E4typeEE6__typeENS1_INS2_IT0_E4typeEE6__typeEEOS3_OS8_(ptr noundef nonnull align 8 dereferenceable(8) %9, ptr noundef nonnull align 4 dereferenceable(4) %10)
  store { i64, i32 } %28, ptr %11, align 8
  call void @llvm.memcpy.p0.p0.i64(ptr align 8 %8, ptr align 8 %11, i64 12, i1 false)
  call void @_ZNSt4pairImsEC2ImiTnNSt9enable_ifIXaaclsr6_PCCFPIT_T0_EE22_MoveConstructiblePairIS3_S4_EEclsr6_PCCFPIS3_S4_EE30_ImplicitlyMoveConvertiblePairIS3_S4_EEEbE4typeELb1EEEOS_IS3_S4_E(ptr noundef nonnull align 8 dereferenceable(10) %4, ptr noundef nonnull align 8 dereferenceable(12) %8)
  br label %32

29:                                               ; preds = %16
  br label %30

30:                                               ; preds = %29, %3
  %31 = call { i64, i16 } @_ZSt9make_pairIRmRsESt4pairINSt25__strip_reference_wrapperINSt5decayIT_E4typeEE6__typeENS3_INS4_IT0_E4typeEE6__typeEEOS5_OSA_(ptr noundef nonnull align 8 dereferenceable(8) %5, ptr noundef nonnull align 2 dereferenceable(2) %6)
  store { i64, i16 } %31, ptr %12, align 8
  call void @llvm.memcpy.p0.p0.i64(ptr align 8 %4, ptr align 8 %12, i64 10, i1 false)
  br label %32

32:                                               ; preds = %30, %20
  %33 = load { i64, i16 }, ptr %4, align 8
  ret { i64, i16 } %33
}

; Function Attrs: mustprogress nounwind uwtable
define linkonce_odr noundef i32 @_ZN4llvm11countl_zeroImEEiT_(i64 noundef %0) #0 comdat {
  %2 = alloca i64, align 8
  store i64 %0, ptr %2, align 8
  %3 = load i64, ptr %2, align 8
  %4 = call noundef i32 @_ZN4llvm6detail19LeadingZerosCounterImLm8EE5countEm(i64 noundef %3)
  ret i32 %4
}

; Function Attrs: mustprogress nounwind uwtable
define linkonce_odr hidden void @_ZNSt4pairImsEC2ImiTnNSt9enable_ifIXaaclsr6_PCCFPIT_T0_EE22_MoveConstructiblePairIS3_S4_EEclsr6_PCCFPIS3_S4_EE30_ImplicitlyMoveConvertiblePairIS3_S4_EEEbE4typeELb1EEEOS_IS3_S4_E(ptr noundef nonnull align 8 dereferenceable(10) %0, ptr noundef nonnull align 8 dereferenceable(12) %1) unnamed_addr #0 comdat align 2 {
  %3 = alloca ptr, align 8
  %4 = alloca ptr, align 8
  store ptr %0, ptr %3, align 8
  store ptr %1, ptr %4, align 8
  %5 = load ptr, ptr %3, align 8
  %6 = getelementptr inbounds nuw %"struct.std::pair", ptr %5, i32 0, i32 0
  %7 = load ptr, ptr %4, align 8
  %8 = getelementptr inbounds nuw %"struct.std::pair.3", ptr %7, i32 0, i32 0
  %9 = load i64, ptr %8, align 8
  store i64 %9, ptr %6, align 8
  %10 = getelementptr inbounds nuw %"struct.std::pair", ptr %5, i32 0, i32 1
  %11 = load ptr, ptr %4, align 8
  %12 = getelementptr inbounds nuw %"struct.std::pair.3", ptr %11, i32 0, i32 1
  %13 = load i32, ptr %12, align 4
  %14 = trunc i32 %13 to i16
  store i16 %14, ptr %10, align 8
  ret void
}

; Function Attrs: mustprogress nounwind uwtable
define linkonce_odr { i64, i32 } @_ZSt9make_pairIRmiESt4pairINSt25__strip_reference_wrapperINSt5decayIT_E4typeEE6__typeENS2_INS3_IT0_E4typeEE6__typeEEOS4_OS9_(ptr noundef nonnull align 8 dereferenceable(8) %0, ptr noundef nonnull align 4 dereferenceable(4) %1) #0 comdat {
  %3 = alloca %"struct.std::pair.3", align 8
  %4 = alloca ptr, align 8
  %5 = alloca ptr, align 8
  store ptr %0, ptr %4, align 8
  store ptr %1, ptr %5, align 8
  %6 = load ptr, ptr %4, align 8
  %7 = load ptr, ptr %5, align 8
  call void @_ZNSt4pairImiEC2IRmiTnNSt9enable_ifIXaaclsr5_PCCPE22_MoveConstructiblePairIT_T0_EEclsr5_PCCPE30_ImplicitlyMoveConvertiblePairIS4_S5_EEEbE4typeELb1EEEOS4_OS5_(ptr noundef nonnull align 8 dereferenceable(12) %3, ptr noundef nonnull align 8 dereferenceable(8) %6, ptr noundef nonnull align 4 dereferenceable(4) %7)
  %8 = load { i64, i32 }, ptr %3, align 8
  ret { i64, i32 } %8
}

; Function Attrs: mustprogress nounwind uwtable
define internal void @"_ZZN4llvm13ScaledNumbers10multiply64EmmENK3$_2clEm"(ptr noundef nonnull align 8 dereferenceable(32) %0, i64 noundef %1) #0 align 2 {
  %3 = alloca ptr, align 8
  %4 = alloca i64, align 8
  %5 = alloca i64, align 8
  store ptr %0, ptr %3, align 8
  store i64 %1, ptr %4, align 8
  %6 = load ptr, ptr %3, align 8
  %7 = getelementptr inbounds nuw %class.anon.2, ptr %6, i32 0, i32 0
  %8 = load ptr, ptr %7, align 8
  %9 = load i64, ptr %8, align 8
  %10 = getelementptr inbounds nuw %class.anon.2, ptr %6, i32 0, i32 1
  %11 = load ptr, ptr %10, align 8
  %12 = load i64, ptr %4, align 8
  %13 = call noundef i64 @"_ZZN4llvm13ScaledNumbers10multiply64EmmENK3$_1clEm"(ptr noundef nonnull align 1 dereferenceable(1) %11, i64 noundef %12)
  %14 = shl i64 %13, 32
  %15 = add i64 %9, %14
  store i64 %15, ptr %5, align 8
  %16 = getelementptr inbounds nuw %class.anon.2, ptr %6, i32 0, i32 3
  %17 = load ptr, ptr %16, align 8
  %18 = load i64, ptr %4, align 8
  %19 = call noundef i64 @"_ZZN4llvm13ScaledNumbers10multiply64EmmENK3$_0clEm"(ptr noundef nonnull align 1 dereferenceable(1) %17, i64 noundef %18)
  %20 = load i64, ptr %5, align 8
  %21 = getelementptr inbounds nuw %class.anon.2, ptr %6, i32 0, i32 0
  %22 = load ptr, ptr %21, align 8
  %23 = load i64, ptr %22, align 8
  %24 = icmp ult i64 %20, %23
  %25 = zext i1 %24 to i64
  %26 = add i64 %19, %25
  %27 = getelementptr inbounds nuw %class.anon.2, ptr %6, i32 0, i32 2
  %28 = load ptr, ptr %27, align 8
  %29 = load i64, ptr %28, align 8
  %30 = add i64 %29, %26
  store i64 %30, ptr %28, align 8
  %31 = load i64, ptr %5, align 8
  %32 = getelementptr inbounds nuw %class.anon.2, ptr %6, i32 0, i32 0
  %33 = load ptr, ptr %32, align 8
  store i64 %31, ptr %33, align 8
  ret void
}

; Function Attrs: mustprogress nounwind uwtable
define internal noundef i64 @"_ZZN4llvm13ScaledNumbers10multiply64EmmENK3$_1clEm"(ptr noundef nonnull align 1 dereferenceable(1) %0, i64 noundef %1) #0 align 2 {
  %3 = alloca ptr, align 8
  %4 = alloca i64, align 8
  store ptr %0, ptr %3, align 8
  store i64 %1, ptr %4, align 8
  %5 = load i64, ptr %4, align 8
  %6 = and i64 %5, 4294967295
  ret i64 %6
}

; Function Attrs: mustprogress nounwind uwtable
define internal noundef i64 @"_ZZN4llvm13ScaledNumbers10multiply64EmmENK3$_0clEm"(ptr noundef nonnull align 1 dereferenceable(1) %0, i64 noundef %1) #0 align 2 {
  %3 = alloca ptr, align 8
  %4 = alloca i64, align 8
  store ptr %0, ptr %3, align 8
  store i64 %1, ptr %4, align 8
  %5 = load i64, ptr %4, align 8
  %6 = lshr i64 %5, 32
  ret i64 %6
}

; Function Attrs: mustprogress nounwind uwtable
define dso_local { i64, i16 } @_ZN4llvm13ScaledNumbers10multiply64Emm(i64 noundef %0, i64 noundef %1) #0 {
  %3 = alloca %"struct.std::pair", align 8
  %4 = alloca i64, align 8
  %5 = alloca i64, align 8
  %6 = alloca %class.anon, align 1
  %7 = alloca %class.anon.0, align 1
  %8 = alloca i64, align 8
  %9 = alloca i64, align 8
  %10 = alloca i64, align 8
  %11 = alloca i64, align 8
  %12 = alloca i64, align 8
  %13 = alloca i64, align 8
  %14 = alloca i64, align 8
  %15 = alloca i64, align 8
  %16 = alloca i64, align 8
  %17 = alloca i64, align 8
  %18 = alloca %class.anon.2, align 8
  %19 = alloca %"struct.std::pair.3", align 8
  %20 = alloca i32, align 4
  %21 = alloca { i64, i32 }, align 8
  %22 = alloca i32, align 4
  %23 = alloca i32, align 4
  %24 = alloca { i64, i16 }, align 8
  store i64 %0, ptr %4, align 8
  store i64 %1, ptr %5, align 8
  %25 = load i64, ptr %4, align 8
  %26 = call noundef i64 @"_ZZN4llvm13ScaledNumbers10multiply64EmmENK3$_0clEm"(ptr noundef nonnull align 1 dereferenceable(1) %6, i64 noundef %25)
  store i64 %26, ptr %8, align 8
  %27 = load i64, ptr %4, align 8
  %28 = call noundef i64 @"_ZZN4llvm13ScaledNumbers10multiply64EmmENK3$_1clEm"(ptr noundef nonnull align 1 dereferenceable(1) %7, i64 noundef %27)
  store i64 %28, ptr %9, align 8
  %29 = load i64, ptr %5, align 8
  %30 = call noundef i64 @"_ZZN4llvm13ScaledNumbers10multiply64EmmENK3$_0clEm"(ptr noundef nonnull align 1 dereferenceable(1) %6, i64 noundef %29)
  store i64 %30, ptr %10, align 8
  %31 = load i64, ptr %5, align 8
  %32 = call noundef i64 @"_ZZN4llvm13ScaledNumbers10multiply64EmmENK3$_1clEm"(ptr noundef nonnull align 1 dereferenceable(1) %7, i64 noundef %31)
  store i64 %32, ptr %11, align 8
  %33 = load i64, ptr %8, align 8
  %34 = load i64, ptr %10, align 8
  %35 = mul i64 %33, %34
  store i64 %35, ptr %12, align 8
  %36 = load i64, ptr %8, align 8
  %37 = load i64, ptr %11, align 8
  %38 = mul i64 %36, %37
  store i64 %38, ptr %13, align 8
  %39 = load i64, ptr %9, align 8
  %40 = load i64, ptr %10, align 8
  %41 = mul i64 %39, %40
  store i64 %41, ptr %14, align 8
  %42 = load i64, ptr %9, align 8
  %43 = load i64, ptr %11, align 8
  %44 = mul i64 %42, %43
  store i64 %44, ptr %15, align 8
  %45 = load i64, ptr %12, align 8
  store i64 %45, ptr %16, align 8
  %46 = load i64, ptr %15, align 8
  store i64 %46, ptr %17, align 8
  %47 = getelementptr inbounds nuw %class.anon.2, ptr %18, i32 0, i32 0
  store ptr %17, ptr %47, align 8
  %48 = getelementptr inbounds nuw %class.anon.2, ptr %18, i32 0, i32 1
  store ptr %7, ptr %48, align 8
  %49 = getelementptr inbounds nuw %class.anon.2, ptr %18, i32 0, i32 2
  store ptr %16, ptr %49, align 8
  %50 = getelementptr inbounds nuw %class.anon.2, ptr %18, i32 0, i32 3
  store ptr %6, ptr %50, align 8
  %51 = load i64, ptr %13, align 8
  call void @"_ZZN4llvm13ScaledNumbers10multiply64EmmENK3$_2clEm"(ptr noundef nonnull align 8 dereferenceable(32) %18, i64 noundef %51)
  %52 = load i64, ptr %14, align 8
  call void @"_ZZN4llvm13ScaledNumbers10multiply64EmmENK3$_2clEm"(ptr noundef nonnull align 8 dereferenceable(32) %18, i64 noundef %52)
  %53 = load i64, ptr %16, align 8
  %54 = icmp ne i64 %53, 0
  br i1 %54, label %57, label %55

55:                                               ; preds = %2
  store i32 0, ptr %20, align 4
  %56 = call { i64, i32 } @_ZSt9make_pairIRmiESt4pairINSt25__strip_reference_wrapperINSt5decayIT_E4typeEE6__typeENS2_INS3_IT0_E4typeEE6__typeEEOS4_OS9_(ptr noundef nonnull align 8 dereferenceable(8) %17, ptr noundef nonnull align 4 dereferenceable(4) %20)
  store { i64, i32 } %56, ptr %21, align 8
  call void @llvm.memcpy.p0.p0.i64(ptr align 8 %19, ptr align 8 %21, i64 12, i1 false)
  call void @_ZNSt4pairImsEC2ImiTnNSt9enable_ifIXaaclsr6_PCCFPIT_T0_EE22_MoveConstructiblePairIS3_S4_EEclsr6_PCCFPIS3_S4_EE30_ImplicitlyMoveConvertiblePairIS3_S4_EEEbE4typeELb1EEEOS_IS3_S4_E(ptr noundef nonnull align 8 dereferenceable(10) %3, ptr noundef nonnull align 8 dereferenceable(12) %19)
  br label %91

57:                                               ; preds = %2
  %58 = load i64, ptr %16, align 8
  %59 = call noundef i32 @_ZN4llvm11countl_zeroImEEiT_(i64 noundef %58)
  store i32 %59, ptr %22, align 4
  %60 = load i32, ptr %22, align 4
  %61 = sub i32 64, %60
  store i32 %61, ptr %23, align 4
  %62 = load i32, ptr %22, align 4
  %63 = icmp ne i32 %62, 0
  br i1 %63, label %64, label %74

64:                                               ; preds = %57
  %65 = load i64, ptr %16, align 8
  %66 = load i32, ptr %22, align 4
  %67 = zext i32 %66 to i64
  %68 = shl i64 %65, %67
  %69 = load i64, ptr %17, align 8
  %70 = load i32, ptr %23, align 4
  %71 = zext i32 %70 to i64
  %72 = lshr i64 %69, %71
  %73 = or i64 %68, %72
  store i64 %73, ptr %16, align 8
  br label %74

74:                                               ; preds = %64, %57
  %75 = load i64, ptr %16, align 8
  %76 = load i32, ptr %23, align 4
  %77 = trunc i32 %76 to i16
  %78 = load i32, ptr %23, align 4
  %79 = icmp ne i32 %78, 0
  br i1 %79, label %80, label %88

80:                                               ; preds = %74
  %81 = load i64, ptr %17, align 8
  %82 = load i32, ptr %23, align 4
  %83 = sub nsw i32 %82, 1
  %84 = zext i32 %83 to i64
  %85 = shl i64 1, %84
  %86 = and i64 %81, %85
  %87 = icmp ne i64 %86, 0
  br label %88

88:                                               ; preds = %80, %74
  %89 = phi i1 [ false, %74 ], [ %87, %80 ]
  %90 = call { i64, i16 } @_ZN4llvm13ScaledNumbers10getRoundedImEESt4pairIT_sES3_sb(i64 noundef %75, i16 noundef signext %77, i1 noundef zeroext %89)
  store { i64, i16 } %90, ptr %24, align 8
  call void @llvm.memcpy.p0.p0.i64(ptr align 8 %3, ptr align 8 %24, i64 10, i1 false)
  br label %91

91:                                               ; preds = %88, %55
  %92 = load { i64, i16 }, ptr %3, align 8
  ret { i64, i16 } %92
}