; Function Attrs: mustprogress nofree norecurse nosync nounwind willreturn memory(none) uwtable
define dso_local { i64, i16 } @_ZN4llvm13ScaledNumbers10multiply64Emm(i64 noundef %0, i64 noundef %1) local_unnamed_addr #0 {
  %3 = lshr i64 %0, 32
  %4 = and i64 %0, 4294967295
  %5 = lshr i64 %1, 32
  %6 = and i64 %1, 4294967295
  %7 = mul nuw i64 %5, %3
  %8 = mul nuw i64 %6, %3
  %9 = mul nuw i64 %5, %4
  %10 = mul nuw i64 %6, %4
  %11 = shl i64 %8, 32
  %12 = add i64 %11, %10
  %13 = lshr i64 %8, 32
  %14 = icmp ult i64 %12, %10
  %15 = zext i1 %14 to i64
  %16 = add nuw i64 %13, %7
  %17 = add i64 %8, %9
  %18 = shl i64 %17, 32
  %19 = add i64 %18, %10
  %20 = lshr i64 %9, 32
  %21 = icmp ult i64 %19, %12
  %22 = zext i1 %21 to i64
  %23 = add nuw i64 %16, %20
  %24 = add nuw i64 %23, %15
  %25 = add nuw i64 %24, %22
  %.not = icmp eq i64 %25, 0
  br i1 %.not, label %_ZN4llvm13ScaledNumbers10getRoundedImEESt4pairIT_sES3_sb.exit, label %26

26:                                               ; preds = %2
  %27 = tail call range(i64 0, 65) i64 @llvm.ctlz.i64(i64 %25, i1 true)
  %28 = trunc nuw nsw i64 %27 to i32
  %29 = sub nuw nsw i32 64, %28
  %.not29 = icmp eq i64 %27, 0
  %30 = shl i64 %25, %27
  %31 = zext nneg i32 %29 to i64
  %32 = lshr i64 %19, %31
  %33 = or i64 %32, %30
  %.0 = select i1 %.not29, i64 %25, i64 %33
  %34 = trunc nuw nsw i32 %29 to i16
  %35 = xor i64 %27, 63
  %36 = shl nuw i64 1, %35
  %37 = and i64 %36, %19
  %.not48 = icmp eq i64 %37, 0
  br i1 %.not48, label %_ZN4llvm13ScaledNumbers10getRoundedImEESt4pairIT_sES3_sb.exit, label %38

38:                                               ; preds = %26
  %39 = add i64 %.0, 1
  %.not.i = icmp eq i64 %39, 0
  %spec.select.i = select i1 %.not.i, i64 -9223372036854775808, i64 %39
  %40 = zext i1 %.not.i to i16
  %spec.select13.i = add nuw nsw i16 %40, %34
  br label %_ZN4llvm13ScaledNumbers10getRoundedImEESt4pairIT_sES3_sb.exit

_ZN4llvm13ScaledNumbers10getRoundedImEESt4pairIT_sES3_sb.exit: ; preds = %38, %26, %2
  %.sroa.037.0 = phi i64 [ %19, %2 ], [ %.0, %26 ], [ %spec.select.i, %38 ]
  %.sroa.338.0 = phi i16 [ 0, %2 ], [ %34, %26 ], [ %spec.select13.i, %38 ]
  %.fca.0.insert = insertvalue { i64, i16 } poison, i64 %.sroa.037.0, 0
  %.fca.1.insert = insertvalue { i64, i16 } %.fca.0.insert, i16 %.sroa.338.0, 1
  ret { i64, i16 } %.fca.1.insert
}